; ModuleID = 'bench/openssl/original/evp_utils.ll'
source_filename = "bench/openssl/original/evp_utils.ll"
target datalayout = "e-m:e-p270:32:32-p271:32:32-p272:64:64-i64:64-i128:128-f80:128-n8:16:32:64-S128"
target triple = "x86_64-pc-linux-gnu"

@.str = private unnamed_addr constant [34 x i8] c"../openssl/crypto/evp/evp_utils.c\00", align 1
@__func__.geterr = private unnamed_addr constant [7 x i8] c"geterr\00", align 1
@__func__.seterr = private unnamed_addr constant [7 x i8] c"seterr\00", align 1

; Function Attrs: nounwind uwtable
define i32 @evp_do_ciph_getparams(ptr noundef readonly captures(address_is_null) %0, ptr noundef %1) local_unnamed_addr #0 {
  %3 = icmp eq ptr %0, null
  br i1 %3, label %15, label %4

4:                                                ; preds = %2
  %5 = getelementptr inbounds nuw i8, ptr %0, i64 120
  %6 = load ptr, ptr %5, align 8, !tbaa !3
  %7 = icmp eq ptr %6, null
  br i1 %7, label %15, label %8

8:                                                ; preds = %4
  %9 = getelementptr inbounds nuw i8, ptr %0, i64 232
  %10 = load ptr, ptr %9, align 8, !tbaa !13
  %11 = icmp eq ptr %10, null
  br i1 %11, label %12, label %13

12:                                               ; preds = %8
  tail call void @ERR_new() #2
  tail call void @ERR_set_debug(ptr noundef nonnull @.str, i32 noundef 65, ptr noundef nonnull @__func__.geterr) #2
  tail call void (i32, i32, ptr, ...) @ERR_set_error(i32 noundef 6, i32 noundef 197, ptr noundef null) #2
  br label %15

13:                                               ; preds = %8
  %14 = tail call i32 %10(ptr noundef %1) #2
  br label %15

15:                                               ; preds = %4, %2, %13, %12
  %.0 = phi i32 [ 0, %12 ], [ %14, %13 ], [ 0, %2 ], [ -1, %4 ]
  ret i32 %.0
}

; Function Attrs: nounwind uwtable
define i32 @evp_do_ciph_ctx_getparams(ptr noundef readonly captures(address_is_null) %0, ptr noundef %1, ptr noundef %2) local_unnamed_addr #0 {
  %4 = icmp eq ptr %0, null
  br i1 %4, label %16, label %5

5:                                                ; preds = %3
  %6 = getelementptr inbounds nuw i8, ptr %0, i64 120
  %7 = load ptr, ptr %6, align 8, !tbaa !3
  %8 = icmp eq ptr %7, null
  br i1 %8, label %16, label %9

9:                                                ; preds = %5
  %10 = getelementptr inbounds nuw i8, ptr %0, i64 240
  %11 = load ptr, ptr %10, align 8, !tbaa !14
  %12 = icmp eq ptr %11, null
  br i1 %12, label %13, label %14

13:                                               ; preds = %9
  tail call void @ERR_new() #2
  tail call void @ERR_set_debug(ptr noundef nonnull @.str, i32 noundef 65, ptr noundef nonnull @__func__.geterr) #2
  tail call void (i32, i32, ptr, ...) @ERR_set_error(i32 noundef 6, i32 noundef 197, ptr noundef null) #2
  br label %16

14:                                               ; preds = %9
  %15 = tail call i32 %11(ptr noundef %1, ptr noundef %2) #2
  br label %16

16:                                               ; preds = %5, %3, %14, %13
  %.0 = phi i32 [ 0, %13 ], [ %15, %14 ], [ 0, %3 ], [ -1, %5 ]
  ret i32 %.0
}

; Function Attrs: nounwind uwtable
define i32 @evp_do_ciph_ctx_setparams(ptr noundef readonly captures(address_is_null) %0, ptr noundef %1, ptr noundef %2) local_unnamed_addr #0 {
  %4 = icmp eq ptr %0, null
  br i1 %4, label %16, label %5

5:                                                ; preds = %3
  %6 = getelementptr inbounds nuw i8, ptr %0, i64 120
  %7 = load ptr, ptr %6, align 8, !tbaa !3
  %8 = icmp eq ptr %7, null
  br i1 %8, label %16, label %9

9:                                                ; preds = %5
  %10 = getelementptr inbounds nuw i8, ptr %0, i64 248
  %11 = load ptr, ptr %10, align 8, !tbaa !15
  %12 = icmp eq ptr %11, null
  br i1 %12, label %13, label %14

13:                                               ; preds = %9
  tail call void @ERR_new() #2
  tail call void @ERR_set_debug(ptr noundef nonnull @.str, i32 noundef 70, ptr noundef nonnull @__func__.seterr) #2
  tail call void (i32, i32, ptr, ...) @ERR_set_error(i32 noundef 6, i32 noundef 198, ptr noundef null) #2
  br label %16

14:                                               ; preds = %9
  %15 = tail call i32 %11(ptr noundef %1, ptr noundef %2) #2
  br label %16

16:                                               ; preds = %5, %3, %14, %13
  %.0 = phi i32 [ 0, %13 ], [ %15, %14 ], [ 0, %3 ], [ -1, %5 ]
  ret i32 %.0
}

; Function Attrs: nounwind uwtable
define i32 @evp_do_md_getparams(ptr noundef readonly captures(address_is_null) %0, ptr noundef %1) local_unnamed_addr #0 {
  %3 = icmp eq ptr %0, null
  br i1 %3, label %15, label %4

4:                                                ; preds = %2
  %5 = getelementptr inbounds nuw i8, ptr %0, i64 112
  %6 = load ptr, ptr %5, align 8, !tbaa !16
  %7 = icmp eq ptr %6, null
  br i1 %7, label %15, label %8

8:                                                ; preds = %4
  %9 = getelementptr inbounds nuw i8, ptr %0, i64 200
  %10 = load ptr, ptr %9, align 8, !tbaa !18
  %11 = icmp eq ptr %10, null
  br i1 %11, label %12, label %13

12:                                               ; preds = %8
  tail call void @ERR_new() #2
  tail call void @ERR_set_debug(ptr noundef nonnull @.str, i32 noundef 65, ptr noundef nonnull @__func__.geterr) #2
  tail call void (i32, i32, ptr, ...) @ERR_set_error(i32 noundef 6, i32 noundef 197, ptr noundef null) #2
  br label %15

13:                                               ; preds = %8
  %14 = tail call i32 %10(ptr noundef %1) #2
  br label %15

15:                                               ; preds = %4, %2, %13, %12
  %.0 = phi i32 [ 0, %12 ], [ %14, %13 ], [ 0, %2 ], [ -1, %4 ]
  ret i32 %.0
}

; Function Attrs: nounwind uwtable
define i32 @evp_do_md_ctx_getparams(ptr noundef readonly captures(address_is_null) %0, ptr noundef %1, ptr noundef %2) local_unnamed_addr #0 {
  %4 = icmp eq ptr %0, null
  br i1 %4, label %16, label %5

5:                                                ; preds = %3
  %6 = getelementptr inbounds nuw i8, ptr %0, i64 112
  %7 = load ptr, ptr %6, align 8, !tbaa !16
  %8 = icmp eq ptr %7, null
  br i1 %8, label %16, label %9

9:                                                ; preds = %5
  %10 = getelementptr inbounds nuw i8, ptr %0, i64 216
  %11 = load ptr, ptr %10, align 8, !tbaa !19
  %12 = icmp eq ptr %11, null
  br i1 %12, label %13, label %14

13:                                               ; preds = %9
  tail call void @ERR_new() #2
  tail call void @ERR_set_debug(ptr noundef nonnull @.str, i32 noundef 65, ptr noundef nonnull @__func__.geterr) #2
  tail call void (i32, i32, ptr, ...) @ERR_set_error(i32 noundef 6, i32 noundef 197, ptr noundef null) #2
  br label %16

14:                                               ; preds = %9
  %15 = tail call i32 %11(ptr noundef %1, ptr noundef %2) #2
  br label %16

16:                                               ; preds = %5, %3, %14, %13
  %.0 = phi i32 [ 0, %13 ], [ %15, %14 ], [ 0, %3 ], [ -1, %5 ]
  ret i32 %.0
}

; Function Attrs: nounwind uwtable
define i32 @evp_do_md_ctx_setparams(ptr noundef readonly captures(address_is_null) %0, ptr noundef %1, ptr noundef %2) local_unnamed_addr #0 {
  %4 = icmp eq ptr %0, null
  br i1 %4, label %16, label %5

5:                                                ; preds = %3
  %6 = getelementptr inbounds nuw i8, ptr %0, i64 112
  %7 = load ptr, ptr %6, align 8, !tbaa !16
  %8 = icmp eq ptr %7, null
  br i1 %8, label %16, label %9

9:                                                ; preds = %5
  %10 = getelementptr inbounds nuw i8, ptr %0, i64 208
  %11 = load ptr, ptr %10, align 8, !tbaa !20
  %12 = icmp eq ptr %11, null
  br i1 %12, label %13, label %14

13:                                               ; preds = %9
  tail call void @ERR_new() #2
  tail call void @ERR_set_debug(ptr noundef nonnull @.str, i32 noundef 70, ptr noundef nonnull @__func__.seterr) #2
  tail call void (i32, i32, ptr, ...) @ERR_set_error(i32 noundef 6, i32 noundef 198, ptr noundef null) #2
  br label %16

14:                                               ; preds = %9
  %15 = tail call i32 %11(ptr noundef %1, ptr noundef %2) #2
  br label %16

16:                                               ; preds = %5, %3, %14, %13
  %.0 = phi i32 [ 0, %13 ], [ %15, %14 ], [ 0, %3 ], [ -1, %5 ]
  ret i32 %.0
}

declare void @ERR_new() local_unnamed_addr #1

declare void @ERR_set_debug(ptr noundef, i32 noundef, ptr noundef) local_unnamed_addr #1

declare void @ERR_set_error(i32 noundef, i32 noundef, ptr noundef, ...) local_unnamed_addr #1


!llvm.module.flags = !{!0, !1, !2}

!0 = !{i32 1, !"wchar_size", i32 4}
!1 = !{i32 8, !"PIC Level", i32 2}
!2 = !{i32 7, !"uwtable", i32 2}
!3 = !{!4, !11, i64 120}
!4 = !{!"evp_cipher_st", !5, i64 0, !5, i64 4, !5, i64 8, !5, i64 12, !8, i64 16, !5, i64 24, !9, i64 32, !9, i64 40, !9, i64 48, !5, i64 56, !9, i64 64, !9, i64 72, !9, i64 80, !9, i64 88, !5, i64 96, !10, i64 104, !10, i64 112, !11, i64 120, !12, i64 128, !9, i64 136, !9, i64 144, !9, i64 152, !9, i64 160, !9, i64 168, !9, i64 176, !9, i64 184, !9, i64 192, !9, i64 200, !9, i64 208, !9, i64 216, !9, i64 224, !9, i64 232, !9, i64 240, !9, i64 248, !9, i64 256, !9, i64 264, !9, i64 272, !9, i64 280, !9, i64 288}
!5 = !{!"int", !6, i64 0}
!6 = !{!"omnipotent char", !7, i64 0}
!7 = !{!"Simple C/C++ TBAA"}
!8 = !{!"long", !6, i64 0}
!9 = !{!"any pointer", !6, i64 0}
!10 = !{!"p1 omnipotent char", !9, i64 0}
!11 = !{!"p1 _ZTS16ossl_provider_st", !9, i64 0}
!12 = !{!"", !6, i64 0}
!13 = !{!4, !9, i64 232}
!14 = !{!4, !9, i64 240}
!15 = !{!4, !9, i64 248}
!16 = !{!17, !11, i64 112}
!17 = !{!"evp_md_st", !5, i64 0, !5, i64 4, !5, i64 8, !8, i64 16, !5, i64 24, !9, i64 32, !9, i64 40, !9, i64 48, !9, i64 56, !9, i64 64, !5, i64 72, !5, i64 76, !9, i64 80, !5, i64 88, !10, i64 96, !10, i64 104, !11, i64 112, !12, i64 120, !9, i64 128, !9, i64 136, !9, i64 144, !9, i64 152, !9, i64 160, !9, i64 168, !9, i64 176, !9, i64 184, !9, i64 192, !9, i64 200, !9, i64 208, !9, i64 216, !9, i64 224, !9, i64 232, !9, i64 240}
!18 = !{!17, !9, i64 200}
!19 = !{!17, !9, i64 216}
!20 = !{!17, !9, i64 208}
